target datalayout = "e-m:e-p270:32:32-p271:32:32-p272:64:64-i64:64-i128:128-f80:128-n8:16:32:64-S128"
target triple = "x86_64-unknown-linux-gnu"

%struct.BDRVReopenState = type { ptr, i32, i32, i8, ptr, ptr, ptr, ptr, ptr }
%struct.BDRVVmdkReopenState = type { ptr }

; Function Attrs: nounwind sspstrong uwtable
define internal void @vmdk_reopen_clean(ptr noundef %state) #0 {
entry:
  %state.addr = alloca ptr, align 8
  %rs = alloca ptr, align 8
  store ptr %state, ptr %state.addr, align 8
  %0 = load ptr, ptr %state.addr, align 8
  %opaque = getelementptr inbounds %struct.BDRVReopenState, ptr %0, i32 0, i32 8
  %1 = load ptr, ptr %opaque, align 8
  store ptr %1, ptr %rs, align 8
  %2 = load ptr, ptr %rs, align 8
  %extents_using_bs_file = getelementptr inbounds %struct.BDRVVmdkReopenState, ptr %2, i32 0, i32 0
  %3 = load ptr, ptr %extents_using_bs_file, align 8
  call void @g_free(ptr noundef %3)
  %4 = load ptr, ptr %rs, align 8
  call void @g_free(ptr noundef %4)
  %5 = load ptr, ptr %state.addr, align 8
  %opaque1 = getelementptr inbounds %struct.BDRVReopenState, ptr %5, i32 0, i32 8
  store ptr null, ptr %opaque1, align 8
  ret void
}

; Function Attrs: nounwind sspstrong uwtable
define internal void @vmdk_reopen_abort(ptr noundef %state) #0 {
entry:
  %state.addr = alloca ptr, align 8
  store ptr %state, ptr %state.addr, align 8
  %0 = load ptr, ptr %state.addr, align 8
  call void @vmdk_reopen_clean(ptr noundef %0)
  ret void
}