; Function Attrs: nounwind sspstrong uwtable
define internal void @vmdk_reopen_abort(ptr noundef captures(none) %state) #0 {
entry:
  %opaque.i = getelementptr inbounds nuw i8, ptr %state, i64 56
  %0 = load ptr, ptr %opaque.i, align 8
  %1 = load ptr, ptr %0, align 8
  tail call void @g_free(ptr noundef %1) #15
  tail call void @g_free(ptr noundef nonnull %0) #15
  store ptr null, ptr %opaque.i, align 8
  ret void
}